; Function Attrs: mustprogress nofree norecurse nosync nounwind willreturn memory(readwrite, inaccessiblemem: none) uwtable
define dso_local void @_ZN5ImGui13SetCursorPosYEf(float noundef %0) local_unnamed_addr #34 {
  %2 = load ptr, ptr @GImGui, align 8, !tbaa !211
  %3 = getelementptr inbounds nuw i8, ptr %2, i64 4928
  %4 = load ptr, ptr %3, align 8, !tbaa !308
  %5 = getelementptr inbounds nuw i8, ptr %4, i64 204
  store i8 1, ptr %5, align 4, !tbaa !781
  %6 = getelementptr inbounds nuw i8, ptr %4, i64 44
  %7 = load float, ptr %6, align 4, !tbaa !848
  %8 = getelementptr inbounds nuw i8, ptr %4, i64 156
  %9 = load float, ptr %8, align 4, !tbaa !956
  %10 = fsub float %7, %9
  %11 = fadd float %0, %10
  %12 = getelementptr inbounds nuw i8, ptr %4, i64 284
  store float %11, ptr %12, align 4, !tbaa !334
  %13 = getelementptr inbounds nuw i8, ptr %4, i64 345
  store i8 1, ptr %13, align 1, !tbaa !1181
  ret void
}